target datalayout = "e-m:e-p270:32:32-p271:32:32-p272:64:64-i64:64-i128:128-f80:128-n8:16:32:64-S128"
target triple = "x86_64-pc-linux-gnu"

@.str = private unnamed_addr constant [33 x i8] c"../openssl/crypto/cms/cms_pwri.c\00", align 1

; Function Attrs: nounwind uwtable
define internal i32 @kek_unwrap_key(ptr noundef %0, ptr noundef %1, ptr noundef %2, i64 noundef %3, ptr noundef %4) #0 {
  %6 = alloca i32, align 4
  %7 = alloca ptr, align 8
  %8 = alloca ptr, align 8
  %9 = alloca ptr, align 8
  %10 = alloca i64, align 8
  %11 = alloca ptr, align 8
  %12 = alloca i64, align 8
  %13 = alloca ptr, align 8
  %14 = alloca i32, align 4
  %15 = alloca i32, align 4
  %16 = alloca i32, align 4
  store ptr %0, ptr %7, align 8, !tbaa !8
  store ptr %1, ptr %8, align 8, !tbaa !56
  store ptr %2, ptr %9, align 8, !tbaa !8
  store i64 %3, ptr %10, align 8, !tbaa !10
  store ptr %4, ptr %11, align 8, !tbaa !29
  call void @llvm.lifetime.start.p0(i64 8, ptr %12) #6
  %17 = load ptr, ptr %11, align 8, !tbaa !29
  %18 = call i32 @EVP_CIPHER_CTX_get_block_size(ptr noundef %17)
  %19 = sext i32 %18 to i64
  store i64 %19, ptr %12, align 8, !tbaa !10
  call void @llvm.lifetime.start.p0(i64 8, ptr %13) #6
  call void @llvm.lifetime.start.p0(i64 4, ptr %14) #6
  call void @llvm.lifetime.start.p0(i64 4, ptr %15) #6
  store i32 0, ptr %15, align 4, !tbaa !26
  %20 = load i64, ptr %12, align 8, !tbaa !10
  %21 = icmp eq i64 %20, 0
  br i1 %21, label %22, label %23

22:                                               ; preds = %5
  store i32 0, ptr %6, align 4
  store i32 1, ptr %16, align 4
  br label %154

23:                                               ; preds = %5
  %24 = load i64, ptr %10, align 8, !tbaa !10
  %25 = load i64, ptr %12, align 8, !tbaa !10
  %26 = mul i64 2, %25
  %27 = icmp ult i64 %24, %26
  br i1 %27, label %28, label %29

28:                                               ; preds = %23
  store i32 0, ptr %6, align 4
  store i32 1, ptr %16, align 4
  br label %154

29:                                               ; preds = %23
  %30 = load i64, ptr %10, align 8, !tbaa !10
  %31 = load i64, ptr %12, align 8, !tbaa !10
  %32 = urem i64 %30, %31
  %33 = icmp ne i64 %32, 0
  br i1 %33, label %34, label %35

34:                                               ; preds = %29
  store i32 0, ptr %6, align 4
  store i32 1, ptr %16, align 4
  br label %154

35:                                               ; preds = %29
  %36 = load i64, ptr %10, align 8, !tbaa !10
  %37 = call noalias ptr @CRYPTO_malloc(i64 noundef %36, ptr noundef @.str, i32 noundef 219)
  store ptr %37, ptr %13, align 8, !tbaa !8
  %38 = icmp eq ptr %37, null
  br i1 %38, label %39, label %40

39:                                               ; preds = %35
  store i32 0, ptr %6, align 4
  store i32 1, ptr %16, align 4
  br label %154

40:                                               ; preds = %35
  %41 = load ptr, ptr %11, align 8, !tbaa !29
  %42 = load ptr, ptr %13, align 8, !tbaa !8
  %43 = load i64, ptr %10, align 8, !tbaa !10
  %44 = getelementptr inbounds nuw i8, ptr %42, i64 %43
  %45 = load i64, ptr %12, align 8, !tbaa !10
  %46 = mul i64 2, %45
  %47 = sub i64 0, %46
  %48 = getelementptr inbounds i8, ptr %44, i64 %47
  %49 = load ptr, ptr %9, align 8, !tbaa !8
  %50 = load i64, ptr %10, align 8, !tbaa !10
  %51 = getelementptr inbounds nuw i8, ptr %49, i64 %50
  %52 = load i64, ptr %12, align 8, !tbaa !10
  %53 = mul i64 2, %52
  %54 = sub i64 0, %53
  %55 = getelementptr inbounds i8, ptr %51, i64 %54
  %56 = load i64, ptr %12, align 8, !tbaa !10
  %57 = mul i64 %56, 2
  %58 = trunc i64 %57 to i32
  %59 = call i32 @EVP_DecryptUpdate(ptr noundef %41, ptr noundef %48, ptr noundef %14, ptr noundef %55, i32 noundef %58)
  %60 = icmp ne i32 %59, 0
  br i1 %60, label %61, label %96

61:                                               ; preds = %40
  %62 = load ptr, ptr %11, align 8, !tbaa !29
  %63 = load ptr, ptr %13, align 8, !tbaa !8
  %64 = load ptr, ptr %13, align 8, !tbaa !8
  %65 = load i64, ptr %10, align 8, !tbaa !10
  %66 = getelementptr inbounds nuw i8, ptr %64, i64 %65
  %67 = load i64, ptr %12, align 8, !tbaa !10
  %68 = sub i64 0, %67
  %69 = getelementptr inbounds i8, ptr %66, i64 %68
  %70 = load i64, ptr %12, align 8, !tbaa !10
  %71 = trunc i64 %70 to i32
  %72 = call i32 @EVP_DecryptUpdate(ptr noundef %62, ptr noundef %63, ptr noundef %14, ptr noundef %69, i32 noundef %71)
  %73 = icmp ne i32 %72, 0
  br i1 %73, label %74, label %96

74:                                               ; preds = %61
  %75 = load ptr, ptr %11, align 8, !tbaa !29
  %76 = load ptr, ptr %13, align 8, !tbaa !8
  %77 = load ptr, ptr %9, align 8, !tbaa !8
  %78 = load i64, ptr %10, align 8, !tbaa !10
  %79 = load i64, ptr %12, align 8, !tbaa !10
  %80 = sub i64 %78, %79
  %81 = trunc i64 %80 to i32
  %82 = call i32 @EVP_DecryptUpdate(ptr noundef %75, ptr noundef %76, ptr noundef %14, ptr noundef %77, i32 noundef %81)
  %83 = icmp ne i32 %82, 0
  br i1 %83, label %84, label %96

84:                                               ; preds = %74
  %85 = load ptr, ptr %11, align 8, !tbaa !29
  %86 = call i32 @EVP_DecryptInit_ex(ptr noundef %85, ptr noundef null, ptr noundef null, ptr noundef null, ptr noundef null)
  %87 = icmp ne i32 %86, 0
  br i1 %87, label %88, label %96

88:                                               ; preds = %84
  %89 = load ptr, ptr %11, align 8, !tbaa !29
  %90 = load ptr, ptr %13, align 8, !tbaa !8
  %91 = load ptr, ptr %13, align 8, !tbaa !8
  %92 = load i64, ptr %10, align 8, !tbaa !10
  %93 = trunc i64 %92 to i32
  %94 = call i32 @EVP_DecryptUpdate(ptr noundef %89, ptr noundef %90, ptr noundef %14, ptr noundef %91, i32 noundef %93)
  %95 = icmp ne i32 %94, 0
  br i1 %95, label %97, label %96

96:                                               ; preds = %88, %84, %74, %61, %40
  br label %150

97:                                               ; preds = %88
  %98 = load ptr, ptr %13, align 8, !tbaa !8
  %99 = getelementptr inbounds i8, ptr %98, i64 1
  %100 = load i8, ptr %99, align 1, !tbaa !15
  %101 = zext i8 %100 to i32
  %102 = load ptr, ptr %13, align 8, !tbaa !8
  %103 = getelementptr inbounds i8, ptr %102, i64 4
  %104 = load i8, ptr %103, align 1, !tbaa !15
  %105 = zext i8 %104 to i32
  %106 = xor i32 %101, %105
  %107 = load ptr, ptr %13, align 8, !tbaa !8
  %108 = getelementptr inbounds i8, ptr %107, i64 2
  %109 = load i8, ptr %108, align 1, !tbaa !15
  %110 = zext i8 %109 to i32
  %111 = load ptr, ptr %13, align 8, !tbaa !8
  %112 = getelementptr inbounds i8, ptr %111, i64 5
  %113 = load i8, ptr %112, align 1, !tbaa !15
  %114 = zext i8 %113 to i32
  %115 = xor i32 %110, %114
  %116 = and i32 %106, %115
  %117 = load ptr, ptr %13, align 8, !tbaa !8
  %118 = getelementptr inbounds i8, ptr %117, i64 3
  %119 = load i8, ptr %118, align 1, !tbaa !15
  %120 = zext i8 %119 to i32
  %121 = load ptr, ptr %13, align 8, !tbaa !8
  %122 = getelementptr inbounds i8, ptr %121, i64 6
  %123 = load i8, ptr %122, align 1, !tbaa !15
  %124 = zext i8 %123 to i32
  %125 = xor i32 %120, %124
  %126 = and i32 %116, %125
  %127 = icmp ne i32 %126, 255
  br i1 %127, label %128, label %129

128:                                              ; preds = %97
  br label %150

129:                                              ; preds = %97
  %130 = load i64, ptr %10, align 8, !tbaa !10
  %131 = load ptr, ptr %13, align 8, !tbaa !8
  %132 = getelementptr inbounds i8, ptr %131, i64 0
  %133 = load i8, ptr %132, align 1, !tbaa !15
  %134 = zext i8 %133 to i32
  %135 = sub nsw i32 %134, 4
  %136 = sext i32 %135 to i64
  %137 = icmp ult i64 %130, %136
  br i1 %137, label %138, label %139

138:                                              ; preds = %129
  br label %150

139:                                              ; preds = %129
  %140 = load ptr, ptr %13, align 8, !tbaa !8
  %141 = getelementptr inbounds i8, ptr %140, i64 0
  %142 = load i8, ptr %141, align 1, !tbaa !15
  %143 = zext i8 %142 to i64
  %144 = load ptr, ptr %8, align 8, !tbaa !56
  store i64 %143, ptr %144, align 8, !tbaa !10
  %145 = load ptr, ptr %7, align 8, !tbaa !8
  %146 = load ptr, ptr %13, align 8, !tbaa !8
  %147 = getelementptr inbounds i8, ptr %146, i64 4
  %148 = load ptr, ptr %8, align 8, !tbaa !56
  %149 = load i64, ptr %148, align 8, !tbaa !10
  call void @llvm.memcpy.p0.p0.i64(ptr align 1 %145, ptr align 1 %147, i64 %149, i1 false)
  store i32 1, ptr %15, align 4, !tbaa !26
  br label %150

150:                                              ; preds = %139, %138, %128, %96
  %151 = load ptr, ptr %13, align 8, !tbaa !8
  %152 = load i64, ptr %10, align 8, !tbaa !10
  call void @CRYPTO_clear_free(ptr noundef %151, i64 noundef %152, ptr noundef @.str, i32 noundef 252)
  %153 = load i32, ptr %15, align 4, !tbaa !26
  store i32 %153, ptr %6, align 4
  store i32 1, ptr %16, align 4
  br label %154

154:                                              ; preds = %150, %39, %34, %28, %22
  call void @llvm.lifetime.end.p0(i64 4, ptr %15) #6
  call void @llvm.lifetime.end.p0(i64 4, ptr %14) #6
  call void @llvm.lifetime.end.p0(i64 8, ptr %13) #6
  call void @llvm.lifetime.end.p0(i64 8, ptr %12) #6
  %155 = load i32, ptr %6, align 4
  ret i32 %155
}