; Function Attrs: nounwind uwtable
define internal fastcc range(i32 0, 2) i32 @kek_unwrap_key(ptr noundef nonnull writeonly captures(none) %0, ptr noundef nonnull writeonly captures(none) %1, ptr noundef %2, i64 noundef range(i64 -2147483648, 2147483648) %3, ptr noundef nonnull %4) unnamed_addr #0 {
  %6 = alloca i32, align 4
  %7 = tail call i32 @EVP_CIPHER_CTX_get_block_size(ptr noundef nonnull %4) #5
  %8 = sext i32 %7 to i64
  call void @llvm.lifetime.start.p0(i64 4, ptr nonnull %6) #5
  %9 = icmp eq i32 %7, 0
  br i1 %9, label %63, label %10

10:                                               ; preds = %5
  %11 = shl nsw i64 %8, 1
  %12 = icmp ult i64 %3, %11
  br i1 %12, label %63, label %13

13:                                               ; preds = %10
  %14 = urem i64 %3, %8
  %.not = icmp eq i64 %14, 0
  br i1 %.not, label %15, label %63

15:                                               ; preds = %13
  %16 = tail call noalias ptr @CRYPTO_malloc(i64 noundef %3, ptr noundef nonnull @.str, i32 noundef 219) #5
  %17 = icmp eq ptr %16, null
  br i1 %17, label %63, label %18

18:                                               ; preds = %15
  %19 = getelementptr inbounds nuw i8, ptr %16, i64 %3
  %20 = sub nsw i64 0, %11
  %21 = getelementptr inbounds i8, ptr %19, i64 %20
  %22 = getelementptr inbounds nuw i8, ptr %2, i64 %3
  %23 = getelementptr inbounds i8, ptr %22, i64 %20
  %24 = trunc i64 %11 to i32
  %25 = call i32 @EVP_DecryptUpdate(ptr noundef nonnull %4, ptr noundef nonnull %21, ptr noundef nonnull %6, ptr noundef nonnull %23, i32 noundef %24) #5
  %.not52 = icmp eq i32 %25, 0
  br i1 %.not52, label %62, label %26

26:                                               ; preds = %18
  %27 = sub nsw i64 0, %8
  %28 = getelementptr inbounds i8, ptr %19, i64 %27
  %29 = call i32 @EVP_DecryptUpdate(ptr noundef nonnull %4, ptr noundef nonnull %16, ptr noundef nonnull %6, ptr noundef nonnull %28, i32 noundef %7) #5
  %.not53 = icmp eq i32 %29, 0
  br i1 %.not53, label %62, label %30

30:                                               ; preds = %26
  %31 = trunc nsw i64 %3 to i32
  %32 = sub i32 %31, %7
  %33 = call i32 @EVP_DecryptUpdate(ptr noundef nonnull %4, ptr noundef nonnull %16, ptr noundef nonnull %6, ptr noundef nonnull %2, i32 noundef %32) #5
  %.not54 = icmp eq i32 %33, 0
  br i1 %.not54, label %62, label %34

34:                                               ; preds = %30
  %35 = call i32 @EVP_DecryptInit_ex(ptr noundef nonnull %4, ptr noundef null, ptr noundef null, ptr noundef null, ptr noundef null) #5
  %.not55 = icmp eq i32 %35, 0
  br i1 %.not55, label %62, label %36

36:                                               ; preds = %34
  %37 = call i32 @EVP_DecryptUpdate(ptr noundef nonnull %4, ptr noundef nonnull %16, ptr noundef nonnull %6, ptr noundef nonnull %16, i32 noundef %31) #5
  %.not56 = icmp eq i32 %37, 0
  br i1 %.not56, label %62, label %38

38:                                               ; preds = %36
  %39 = getelementptr inbounds nuw i8, ptr %16, i64 1
  %40 = load i8, ptr %39, align 1, !tbaa !8
  %41 = getelementptr inbounds nuw i8, ptr %16, i64 4
  %42 = load i8, ptr %41, align 1, !tbaa !8
  %43 = xor i8 %42, %40
  %44 = getelementptr inbounds nuw i8, ptr %16, i64 2
  %45 = load i8, ptr %44, align 1, !tbaa !8
  %46 = getelementptr inbounds nuw i8, ptr %16, i64 5
  %47 = load i8, ptr %46, align 1, !tbaa !8
  %48 = xor i8 %47, %45
  %49 = and i8 %48, %43
  %50 = getelementptr inbounds nuw i8, ptr %16, i64 3
  %51 = load i8, ptr %50, align 1, !tbaa !8
  %52 = getelementptr inbounds nuw i8, ptr %16, i64 6
  %53 = load i8, ptr %52, align 1, !tbaa !8
  %54 = xor i8 %53, %51
  %55 = and i8 %49, %54
  %.not57 = icmp eq i8 %55, -1
  br i1 %.not57, label %56, label %62

56:                                               ; preds = %38
  %57 = load i8, ptr %16, align 1, !tbaa !8
  %58 = zext i8 %57 to i64
  %59 = add nsw i64 %58, -4
  %60 = icmp ult i64 %3, %59
  br i1 %60, label %62, label %61

61:                                               ; preds = %56
  store i64 %58, ptr %1, align 8, !tbaa !34
  call void @llvm.memcpy.p0.p0.i64(ptr nonnull align 1 %0, ptr nonnull align 1 %41, i64 %58, i1 false)
  br label %62

62:                                               ; preds = %56, %38, %18, %26, %30, %34, %36, %61
  %.0 = phi i32 [ 0, %38 ], [ 0, %56 ], [ 1, %61 ], [ 0, %36 ], [ 0, %34 ], [ 0, %30 ], [ 0, %26 ], [ 0, %18 ]
  call void @CRYPTO_clear_free(ptr noundef nonnull %16, i64 noundef %3, ptr noundef nonnull @.str, i32 noundef 252) #5
  br label %63

63:                                               ; preds = %15, %13, %10, %5, %62
  %.047 = phi i32 [ %.0, %62 ], [ 0, %5 ], [ 0, %10 ], [ 0, %13 ], [ 0, %15 ]
  call void @llvm.lifetime.end.p0(i64 4, ptr nonnull %6) #5
  ret i32 %.047
}